; ModuleID = '29/1167.c'
source_filename = "29/1167.c"
target datalayout = "e-m:e-p270:32:32-p271:32:32-p272:64:64-i64:64-f80:128-n8:16:32:64-S128"
target triple = "x86_64-pc-linux-gnu"

@.str = private unnamed_addr constant [3 x i8] c"%d\00", align 1
@.str.1 = private unnamed_addr constant [7 x i8] c"%.3lf\0A\00", align 1

; Function Attrs: noinline nounwind uwtable
define dso_local i32 @main() #0 {
  %1 = alloca i32, align 4
  %2 = alloca i32, align 4
  %3 = alloca [1000 x i32], align 16
  %4 = alloca i32, align 4
  %5 = alloca i32, align 4
  %6 = alloca i32, align 4
  %7 = alloca i32, align 4
  %8 = alloca i32, align 4
  %9 = alloca i32, align 4
  %10 = alloca [1000 x double], align 16
  %11 = alloca [1000 x double], align 16
  store i32 0, i32* %1, align 4
  store i32 2, i32* %8, align 4
  store i32 1, i32* %9, align 4
  %12 = bitcast [1000 x double]* %10 to i8*
  call void @llvm.memset.p0i8.i64(i8* align 16 %12, i8 0, i64 8000, i1 false)
  %13 = bitcast [1000 x double]* %11 to i8*
  call void @llvm.memset.p0i8.i64(i8* align 16 %13, i8 0, i64 8000, i1 false)
  %14 = call i32 (i8*, ...) @__isoc99_scanf(i8* getelementptr inbounds ([3 x i8], [3 x i8]* @.str, i64 0, i64 0), i32* %2)
  store i32 0, i32* %4, align 4
  br label %15

15:                                               ; preds = %24, %0
  %16 = load i32, i32* %4, align 4
  %17 = load i32, i32* %2, align 4
  %18 = icmp slt i32 %16, %17
  br i1 %18, label %19, label %27

19:                                               ; preds = %15
  %20 = load i32, i32* %4, align 4
  %21 = sext i32 %20 to i64
  %22 = getelementptr inbounds [1000 x i32], [1000 x i32]* %3, i64 0, i64 %21
  %23 = call i32 (i8*, ...) @__isoc99_scanf(i8* getelementptr inbounds ([3 x i8], [3 x i8]* @.str, i64 0, i64 0), i32* %22)
  br label %24

24:                                               ; preds = %19
  %25 = load i32, i32* %4, align 4
  %26 = add nsw i32 %25, 1
  store i32 %26, i32* %4, align 4
  br label %15

27:                                               ; preds = %15
  store i32 0, i32* %4, align 4
  br label %28

28:                                               ; preds = %80, %27
  %29 = load i32, i32* %4, align 4
  %30 = load i32, i32* %2, align 4
  %31 = icmp slt i32 %29, %30
  br i1 %31, label %32, label %83

32:                                               ; preds = %28
  store i32 0, i32* %5, align 4
  br label %33

33:                                               ; preds = %76, %32
  %34 = load i32, i32* %5, align 4
  %35 = load i32, i32* %4, align 4
  %36 = sext i32 %35 to i64
  %37 = getelementptr inbounds [1000 x i32], [1000 x i32]* %3, i64 0, i64 %36
  %38 = load i32, i32* %37, align 4
  %39 = icmp slt i32 %34, %38
  br i1 %39, label %40, label %79

40:                                               ; preds = %33
  store i32 2, i32* %8, align 4
  store i32 1, i32* %9, align 4
  store i32 0, i32* %6, align 4
  br label %41

41:                                               ; preds = %63, %40
  %42 = load i32, i32* %6, align 4
  %43 = load i32, i32* %4, align 4
  %44 = sext i32 %43 to i64
  %45 = getelementptr inbounds [1000 x i32], [1000 x i32]* %3, i64 0, i64 %44
  %46 = load i32, i32* %45, align 4
  %47 = icmp slt i32 %42, %46
  br i1 %47, label %48, label %66

48:                                               ; preds = %41
  %49 = load i32, i32* %8, align 4
  %50 = sitofp i32 %49 to double
  %51 = fmul double 1.000000e+00, %50
  %52 = load i32, i32* %9, align 4
  %53 = sitofp i32 %52 to double
  %54 = fdiv double %51, %53
  %55 = load i32, i32* %6, align 4
  %56 = sext i32 %55 to i64
  %57 = getelementptr inbounds [1000 x double], [1000 x double]* %11, i64 0, i64 %56
  store double %54, double* %57, align 8
  %58 = load i32, i32* %8, align 4
  store i32 %58, i32* %7, align 4
  %59 = load i32, i32* %8, align 4
  %60 = load i32, i32* %9, align 4
  %61 = add nsw i32 %59, %60
  store i32 %61, i32* %8, align 4
  %62 = load i32, i32* %7, align 4
  store i32 %62, i32* %9, align 4
  br label %63

63:                                               ; preds = %48
  %64 = load i32, i32* %6, align 4
  %65 = add nsw i32 %64, 1
  store i32 %65, i32* %6, align 4
  br label %41

66:                                               ; preds = %41
  %67 = load i32, i32* %5, align 4
  %68 = sext i32 %67 to i64
  %69 = getelementptr inbounds [1000 x double], [1000 x double]* %11, i64 0, i64 %68
  %70 = load double, double* %69, align 8
  %71 = load i32, i32* %4, align 4
  %72 = sext i32 %71 to i64
  %73 = getelementptr inbounds [1000 x double], [1000 x double]* %10, i64 0, i64 %72
  %74 = load double, double* %73, align 8
  %75 = fadd double %74, %70
  store double %75, double* %73, align 8
  br label %76

76:                                               ; preds = %66
  %77 = load i32, i32* %5, align 4
  %78 = add nsw i32 %77, 1
  store i32 %78, i32* %5, align 4
  br label %33

79:                                               ; preds = %33
  br label %80

80:                                               ; preds = %79
  %81 = load i32, i32* %4, align 4
  %82 = add nsw i32 %81, 1
  store i32 %82, i32* %4, align 4
  br label %28

83:                                               ; preds = %28
  store i32 0, i32* %4, align 4
  br label %84

84:                                               ; preds = %94, %83
  %85 = load i32, i32* %4, align 4
  %86 = load i32, i32* %2, align 4
  %87 = icmp slt i32 %85, %86
  br i1 %87, label %88, label %97

88:                                               ; preds = %84
  %89 = load i32, i32* %4, align 4
  %90 = sext i32 %89 to i64
  %91 = getelementptr inbounds [1000 x double], [1000 x double]* %10, i64 0, i64 %90
  %92 = load double, double* %91, align 8
  %93 = call i32 (i8*, ...) @printf(i8* getelementptr inbounds ([7 x i8], [7 x i8]* @.str.1, i64 0, i64 0), double %92)
  br label %94

94:                                               ; preds = %88
  %95 = load i32, i32* %4, align 4
  %96 = add nsw i32 %95, 1
  store i32 %96, i32* %4, align 4
  br label %84

97:                                               ; preds = %84
  ret i32 0
}

; Function Attrs: argmemonly nounwind willreturn
declare void @llvm.memset.p0i8.i64(i8* nocapture writeonly, i8, i64, i1 immarg) #1

declare dso_local i32 @__isoc99_scanf(i8*, ...) #2

declare dso_local i32 @printf(i8*, ...) #2


!llvm.module.flags = !{!0}
!llvm.ident = !{!1}

!0 = !{i32 1, !"wchar_size", i32 4}
!1 = !{!"clang version 10.0.0-4ubuntu1 "}
